target datalayout = "e-m:e-p270:32:32-p271:32:32-p272:64:64-i64:64-i128:128-f80:128-n8:16:32:64-S128"
target triple = "x86_64-pc-linux-gnu"

%struct.Bmcg_Man_t_ = type { ptr, ptr, ptr, ptr, %struct.Vec_Ptr_t_, %struct.Vec_Int_t_, %struct.Vec_Int_t_, [100 x ptr], i32, i32, i32, i32, i64, i64, i64, i64, i64 }
%struct.Vec_Ptr_t_ = type { i32, i32, ptr }
%struct.Vec_Int_t_ = type { i32, i32, ptr }
%struct.Bmc_AndPar_t_ = type { i32, i32, i32, i32, i32, i32, i32, i32, i32, i32, i32, i32, i32, i32, i32, i32, i32, i32, i32, ptr }

@.str.11 = private unnamed_addr constant [5 x i8] c"%s =\00", align 1
@.str.12 = private unnamed_addr constant [15 x i8] c"Unfolding     \00", align 1
@.str.13 = private unnamed_addr constant [22 x i8] c"%9.2f sec (%6.2f %%)\0A\00", align 1
@.str.14 = private unnamed_addr constant [15 x i8] c"CNF generation\00", align 1
@.str.15 = private unnamed_addr constant [15 x i8] c"CNF simplify  \00", align 1
@.str.16 = private unnamed_addr constant [15 x i8] c"SAT solving   \00", align 1
@.str.17 = private unnamed_addr constant [15 x i8] c"Other         \00", align 1
@.str.18 = private unnamed_addr constant [15 x i8] c"TOTAL         \00", align 1

; Function Attrs: nounwind uwtable
define void @Bmcg_ManPrintTime(ptr noundef %0) #0 {
  %2 = alloca ptr, align 8
  %3 = alloca i64, align 8
  %4 = alloca i32, align 4
  store ptr %0, ptr %2, align 8, !tbaa !10
  call void @llvm.lifetime.start.p0(i64 8, ptr %3) #13
  %5 = load ptr, ptr %2, align 8, !tbaa !10
  %6 = getelementptr inbounds nuw %struct.Bmcg_Man_t_, ptr %5, i32 0, i32 12
  %7 = load i64, ptr %6, align 8, !tbaa !75
  %8 = load ptr, ptr %2, align 8, !tbaa !10
  %9 = getelementptr inbounds nuw %struct.Bmcg_Man_t_, ptr %8, i32 0, i32 13
  %10 = load i64, ptr %9, align 8, !tbaa !86
  %11 = add nsw i64 %7, %10
  %12 = load ptr, ptr %2, align 8, !tbaa !10
  %13 = getelementptr inbounds nuw %struct.Bmcg_Man_t_, ptr %12, i32 0, i32 14
  %14 = load i64, ptr %13, align 8, !tbaa !91
  %15 = add nsw i64 %11, %14
  %16 = load ptr, ptr %2, align 8, !tbaa !10
  %17 = getelementptr inbounds nuw %struct.Bmcg_Man_t_, ptr %16, i32 0, i32 15
  %18 = load i64, ptr %17, align 8, !tbaa !92
  %19 = add nsw i64 %15, %18
  %20 = load ptr, ptr %2, align 8, !tbaa !10
  %21 = getelementptr inbounds nuw %struct.Bmcg_Man_t_, ptr %20, i32 0, i32 16
  %22 = load i64, ptr %21, align 8, !tbaa !93
  %23 = add nsw i64 %19, %22
  store i64 %23, ptr %3, align 8, !tbaa !74
  %24 = load ptr, ptr %2, align 8, !tbaa !10
  %25 = getelementptr inbounds nuw %struct.Bmcg_Man_t_, ptr %24, i32 0, i32 0
  %26 = load ptr, ptr %25, align 8, !tbaa !14
  %27 = getelementptr inbounds nuw %struct.Bmc_AndPar_t_, ptr %26, i32 0, i32 13
  %28 = load i32, ptr %27, align 4, !tbaa !87
  %29 = icmp ne i32 %28, 0
  br i1 %29, label %31, label %30

30:                                               ; preds = %1
  store i32 1, ptr %4, align 4
  br label %154

31:                                               ; preds = %1
  call void (i32, ptr, ...) @Abc_Print(i32 noundef 1, ptr noundef @.str.11, ptr noundef @.str.12)
  %32 = load ptr, ptr %2, align 8, !tbaa !10
  %33 = getelementptr inbounds nuw %struct.Bmcg_Man_t_, ptr %32, i32 0, i32 12
  %34 = load i64, ptr %33, align 8, !tbaa !75
  %35 = sitofp i64 %34 to double
  %36 = fmul double 1.000000e+00, %35
  %37 = fdiv double %36, 1.000000e+06
  %38 = load i64, ptr %3, align 8, !tbaa !74
  %39 = sitofp i64 %38 to double
  %40 = fcmp une double %39, 0.000000e+00
  br i1 %40, label %41, label %50

41:                                               ; preds = %31
  %42 = load ptr, ptr %2, align 8, !tbaa !10
  %43 = getelementptr inbounds nuw %struct.Bmcg_Man_t_, ptr %42, i32 0, i32 12
  %44 = load i64, ptr %43, align 8, !tbaa !75
  %45 = sitofp i64 %44 to double
  %46 = fmul double 1.000000e+02, %45
  %47 = load i64, ptr %3, align 8, !tbaa !74
  %48 = sitofp i64 %47 to double
  %49 = fdiv double %46, %48
  br label %51

50:                                               ; preds = %31
  br label %51

51:                                               ; preds = %50, %41
  %52 = phi double [ %49, %41 ], [ 0.000000e+00, %50 ]
  call void (i32, ptr, ...) @Abc_Print(i32 noundef 1, ptr noundef @.str.13, double noundef %37, double noundef %52)
  call void (i32, ptr, ...) @Abc_Print(i32 noundef 1, ptr noundef @.str.11, ptr noundef @.str.14)
  %53 = load ptr, ptr %2, align 8, !tbaa !10
  %54 = getelementptr inbounds nuw %struct.Bmcg_Man_t_, ptr %53, i32 0, i32 13
  %55 = load i64, ptr %54, align 8, !tbaa !86
  %56 = sitofp i64 %55 to double
  %57 = fmul double 1.000000e+00, %56
  %58 = fdiv double %57, 1.000000e+06
  %59 = load i64, ptr %3, align 8, !tbaa !74
  %60 = sitofp i64 %59 to double
  %61 = fcmp une double %60, 0.000000e+00
  br i1 %61, label %62, label %71

62:                                               ; preds = %51
  %63 = load ptr, ptr %2, align 8, !tbaa !10
  %64 = getelementptr inbounds nuw %struct.Bmcg_Man_t_, ptr %63, i32 0, i32 13
  %65 = load i64, ptr %64, align 8, !tbaa !86
  %66 = sitofp i64 %65 to double
  %67 = fmul double 1.000000e+02, %66
  %68 = load i64, ptr %3, align 8, !tbaa !74
  %69 = sitofp i64 %68 to double
  %70 = fdiv double %67, %69
  br label %72

71:                                               ; preds = %51
  br label %72

72:                                               ; preds = %71, %62
  %73 = phi double [ %70, %62 ], [ 0.000000e+00, %71 ]
  call void (i32, ptr, ...) @Abc_Print(i32 noundef 1, ptr noundef @.str.13, double noundef %58, double noundef %73)
  call void (i32, ptr, ...) @Abc_Print(i32 noundef 1, ptr noundef @.str.11, ptr noundef @.str.15)
  %74 = load ptr, ptr %2, align 8, !tbaa !10
  %75 = getelementptr inbounds nuw %struct.Bmcg_Man_t_, ptr %74, i32 0, i32 14
  %76 = load i64, ptr %75, align 8, !tbaa !91
  %77 = sitofp i64 %76 to double
  %78 = fmul double 1.000000e+00, %77
  %79 = fdiv double %78, 1.000000e+06
  %80 = load i64, ptr %3, align 8, !tbaa !74
  %81 = sitofp i64 %80 to double
  %82 = fcmp une double %81, 0.000000e+00
  br i1 %82, label %83, label %92

83:                                               ; preds = %72
  %84 = load ptr, ptr %2, align 8, !tbaa !10
  %85 = getelementptr inbounds nuw %struct.Bmcg_Man_t_, ptr %84, i32 0, i32 14
  %86 = load i64, ptr %85, align 8, !tbaa !91
  %87 = sitofp i64 %86 to double
  %88 = fmul double 1.000000e+02, %87
  %89 = load i64, ptr %3, align 8, !tbaa !74
  %90 = sitofp i64 %89 to double
  %91 = fdiv double %88, %90
  br label %93

92:                                               ; preds = %72
  br label %93

93:                                               ; preds = %92, %83
  %94 = phi double [ %91, %83 ], [ 0.000000e+00, %92 ]
  call void (i32, ptr, ...) @Abc_Print(i32 noundef 1, ptr noundef @.str.13, double noundef %79, double noundef %94)
  call void (i32, ptr, ...) @Abc_Print(i32 noundef 1, ptr noundef @.str.11, ptr noundef @.str.16)
  %95 = load ptr, ptr %2, align 8, !tbaa !10
  %96 = getelementptr inbounds nuw %struct.Bmcg_Man_t_, ptr %95, i32 0, i32 15
  %97 = load i64, ptr %96, align 8, !tbaa !92
  %98 = sitofp i64 %97 to double
  %99 = fmul double 1.000000e+00, %98
  %100 = fdiv double %99, 1.000000e+06
  %101 = load i64, ptr %3, align 8, !tbaa !74
  %102 = sitofp i64 %101 to double
  %103 = fcmp une double %102, 0.000000e+00
  br i1 %103, label %104, label %113

104:                                              ; preds = %93
  %105 = load ptr, ptr %2, align 8, !tbaa !10
  %106 = getelementptr inbounds nuw %struct.Bmcg_Man_t_, ptr %105, i32 0, i32 15
  %107 = load i64, ptr %106, align 8, !tbaa !92
  %108 = sitofp i64 %107 to double
  %109 = fmul double 1.000000e+02, %108
  %110 = load i64, ptr %3, align 8, !tbaa !74
  %111 = sitofp i64 %110 to double
  %112 = fdiv double %109, %111
  br label %114

113:                                              ; preds = %93
  br label %114

114:                                              ; preds = %113, %104
  %115 = phi double [ %112, %104 ], [ 0.000000e+00, %113 ]
  call void (i32, ptr, ...) @Abc_Print(i32 noundef 1, ptr noundef @.str.13, double noundef %100, double noundef %115)
  call void (i32, ptr, ...) @Abc_Print(i32 noundef 1, ptr noundef @.str.11, ptr noundef @.str.17)
  %116 = load ptr, ptr %2, align 8, !tbaa !10
  %117 = getelementptr inbounds nuw %struct.Bmcg_Man_t_, ptr %116, i32 0, i32 16
  %118 = load i64, ptr %117, align 8, !tbaa !93
  %119 = sitofp i64 %118 to double
  %120 = fmul double 1.000000e+00, %119
  %121 = fdiv double %120, 1.000000e+06
  %122 = load i64, ptr %3, align 8, !tbaa !74
  %123 = sitofp i64 %122 to double
  %124 = fcmp une double %123, 0.000000e+00
  br i1 %124, label %125, label %134

125:                                              ; preds = %114
  %126 = load ptr, ptr %2, align 8, !tbaa !10
  %127 = getelementptr inbounds nuw %struct.Bmcg_Man_t_, ptr %126, i32 0, i32 16
  %128 = load i64, ptr %127, align 8, !tbaa !93
  %129 = sitofp i64 %128 to double
  %130 = fmul double 1.000000e+02, %129
  %131 = load i64, ptr %3, align 8, !tbaa !74
  %132 = sitofp i64 %131 to double
  %133 = fdiv double %130, %132
  br label %135

134:                                              ; preds = %114
  br label %135

135:                                              ; preds = %134, %125
  %136 = phi double [ %133, %125 ], [ 0.000000e+00, %134 ]
  call void (i32, ptr, ...) @Abc_Print(i32 noundef 1, ptr noundef @.str.13, double noundef %121, double noundef %136)
  call void (i32, ptr, ...) @Abc_Print(i32 noundef 1, ptr noundef @.str.11, ptr noundef @.str.18)
  %137 = load i64, ptr %3, align 8, !tbaa !74
  %138 = sitofp i64 %137 to double
  %139 = fmul double 1.000000e+00, %138
  %140 = fdiv double %139, 1.000000e+06
  %141 = load i64, ptr %3, align 8, !tbaa !74
  %142 = sitofp i64 %141 to double
  %143 = fcmp une double %142, 0.000000e+00
  br i1 %143, label %144, label %151

144:                                              ; preds = %135
  %145 = load i64, ptr %3, align 8, !tbaa !74
  %146 = sitofp i64 %145 to double
  %147 = fmul double 1.000000e+02, %146
  %148 = load i64, ptr %3, align 8, !tbaa !74
  %149 = sitofp i64 %148 to double
  %150 = fdiv double %147, %149
  br label %152

151:                                              ; preds = %135
  br label %152

152:                                              ; preds = %151, %144
  %153 = phi double [ %150, %144 ], [ 0.000000e+00, %151 ]
  call void (i32, ptr, ...) @Abc_Print(i32 noundef 1, ptr noundef @.str.13, double noundef %140, double noundef %153)
  store i32 0, ptr %4, align 4
  br label %154

154:                                              ; preds = %152, %30
  call void @llvm.lifetime.end.p0(i64 8, ptr %3) #13
  %155 = load i32, ptr %4, align 4
  switch i32 %155, label %157 [
    i32 0, label %156
    i32 1, label %156
  ]

156:                                              ; preds = %154, %154
  ret void

157:                                              ; preds = %154
  unreachable
}