; Function Attrs: nounwind uwtable
define void @Bmcg_ManPrintTime(ptr noundef readonly captures(none) %0) local_unnamed_addr #0 {
  %2 = load ptr, ptr %0, align 8, !tbaa !7
  %3 = getelementptr inbounds nuw i8, ptr %2, i64 52
  %4 = load i32, ptr %3, align 4, !tbaa !79
  %.not = icmp eq i32 %4, 0
  br i1 %.not, label %55, label %5

5:                                                ; preds = %1
  %6 = getelementptr inbounds nuw i8, ptr %0, i64 928
  %7 = getelementptr inbounds nuw i8, ptr %0, i64 920
  %8 = getelementptr inbounds nuw i8, ptr %0, i64 912
  %9 = getelementptr inbounds nuw i8, ptr %0, i64 904
  %10 = getelementptr inbounds nuw i8, ptr %0, i64 896
  %11 = load i64, ptr %10, align 8, !tbaa !68
  %12 = load i64, ptr %9, align 8, !tbaa !78
  %13 = add nsw i64 %12, %11
  %14 = load i64, ptr %8, align 8, !tbaa !85
  %15 = add nsw i64 %13, %14
  %16 = load i64, ptr %7, align 8, !tbaa !86
  %17 = add nsw i64 %15, %16
  %18 = load i64, ptr %6, align 8, !tbaa !87
  %19 = add nsw i64 %17, %18
  tail call void (i32, ptr, ...) @Abc_Print(i32 poison, ptr noundef nonnull @.str.11, ptr noundef nonnull @.str.12)
  %20 = load i64, ptr %10, align 8, !tbaa !68
  %21 = sitofp i64 %20 to double
  %22 = fdiv double %21, 1.000000e+06
  %23 = sitofp i64 %19 to double
  %.not29 = icmp eq i64 %19, 0
  %24 = fmul double %21, 1.000000e+02
  %25 = fdiv double %24, %23
  %26 = select i1 %.not29, double 0.000000e+00, double %25
  tail call void (i32, ptr, ...) @Abc_Print(i32 poison, ptr noundef nonnull @.str.13, double noundef %22, double noundef %26)
  tail call void (i32, ptr, ...) @Abc_Print(i32 poison, ptr noundef nonnull @.str.11, ptr noundef nonnull @.str.14)
  %27 = load i64, ptr %9, align 8, !tbaa !78
  %28 = sitofp i64 %27 to double
  %29 = fdiv double %28, 1.000000e+06
  %30 = fmul double %28, 1.000000e+02
  %31 = fdiv double %30, %23
  %32 = select i1 %.not29, double 0.000000e+00, double %31
  tail call void (i32, ptr, ...) @Abc_Print(i32 poison, ptr noundef nonnull @.str.13, double noundef %29, double noundef %32)
  tail call void (i32, ptr, ...) @Abc_Print(i32 poison, ptr noundef nonnull @.str.11, ptr noundef nonnull @.str.15)
  %33 = load i64, ptr %8, align 8, !tbaa !85
  %34 = sitofp i64 %33 to double
  %35 = fdiv double %34, 1.000000e+06
  %36 = fmul double %34, 1.000000e+02
  %37 = fdiv double %36, %23
  %38 = select i1 %.not29, double 0.000000e+00, double %37
  tail call void (i32, ptr, ...) @Abc_Print(i32 poison, ptr noundef nonnull @.str.13, double noundef %35, double noundef %38)
  tail call void (i32, ptr, ...) @Abc_Print(i32 poison, ptr noundef nonnull @.str.11, ptr noundef nonnull @.str.16)
  %39 = load i64, ptr %7, align 8, !tbaa !86
  %40 = sitofp i64 %39 to double
  %41 = fdiv double %40, 1.000000e+06
  %42 = fmul double %40, 1.000000e+02
  %43 = fdiv double %42, %23
  %44 = select i1 %.not29, double 0.000000e+00, double %43
  tail call void (i32, ptr, ...) @Abc_Print(i32 poison, ptr noundef nonnull @.str.13, double noundef %41, double noundef %44)
  tail call void (i32, ptr, ...) @Abc_Print(i32 poison, ptr noundef nonnull @.str.11, ptr noundef nonnull @.str.17)
  %45 = load i64, ptr %6, align 8, !tbaa !87
  %46 = sitofp i64 %45 to double
  %47 = fdiv double %46, 1.000000e+06
  %48 = fmul double %46, 1.000000e+02
  %49 = fdiv double %48, %23
  %50 = select i1 %.not29, double 0.000000e+00, double %49
  tail call void (i32, ptr, ...) @Abc_Print(i32 poison, ptr noundef nonnull @.str.13, double noundef %47, double noundef %50)
  tail call void (i32, ptr, ...) @Abc_Print(i32 poison, ptr noundef nonnull @.str.11, ptr noundef nonnull @.str.18)
  %51 = fdiv double %23, 1.000000e+06
  %52 = fmul double %23, 1.000000e+02
  %53 = fdiv double %52, %23
  %54 = select i1 %.not29, double 0.000000e+00, double %53
  tail call void (i32, ptr, ...) @Abc_Print(i32 poison, ptr noundef nonnull @.str.13, double noundef %51, double noundef %54)
  br label %55

55:                                               ; preds = %1, %5
  ret void
}